ccopy_reg
_reconstructor
p0
(cpandas.core.series
Series
p1
c__builtin__
object
p2
Ntp3
Rp4
(dp5
S'_metadata'
p6
(lp7
S'name'
p8
asS'_data'
p9
g0
(cpandas.core.internals
SingleBlockManager
p10
g2
Ntp11
Rp12
((lp13
cpandas.indexes.base
_new_Index
p14
(cpandas.indexes.range
RangeIndex
p15
(dp16
S'start'
p17
I0
sS'step'
p18
I1
sS'stop'
p19
I1688
sg8
Nstp20
Rp21
a(lp22
cnumpy.core.multiarray
_reconstruct
p23
(cnumpy
ndarray
p24
(I0
tp25
S'b'
p26
tp27
Rp28
(I1
(I1688
tp29
cnumpy
dtype
p30
(S'O8'
p31
I0
I1
tp32
Rp33
(I3
S'|'
p34
NNNI-1
I-1
I63
tp35
bI00
(lp36
S'Emil Jannings'
p37
aS'Richard Barthelmess'
p38
aS'Warner Baxter'
p39
aS'George Bancroft'
p40
aS'Chester Morris'
p41
aS'Paul Muni'
p42
aS'Lewis Stone'
p43
aS'George Arliss'
p44
aS'George Arliss'
p45
aS'Wallace Beery'
p46
aS'Maurice Chevalier'
p47
aS'Ronald Colman'
p48
aS'Lawrence Tibbett'
p49
aS'Lionel Barrymore'
p50
aS'Jackie Cooper'
p51
aS'Richard Dix'
p52
aS'Fredric March'
p53
aS'Adolphe Menjou'
p54
aS'Wallace Beery'
p55
aS'Fredric March'
p56
aS'Alfred Lunt'
p57
aS'Charles Laughton'
p58
aS'Leslie Howard'
p59
ag42
aS'Clark Gable'
p60
aS'Frank Morgan'
p61
aS'William Powell'
p62
aS'Victor McLaglen'
p63
ag60
ag58
aS'Franchot Tone'
p64
aS'Paul Muni'
p65
ag42
aS'Gary Cooper'
p66
aS'Walter Huston'
p67
ag62
aS'Spencer Tracy'
p68
ag68
aS'Charles Boyer'
p69
ag53
aS'Robert Montgomery'
p70
ag42
ag68
ag69
aS'James Cagney'
p71
aS'Robert Donat'
p72
ag59
ag72
ag60
aS'Laurence Olivier'
p73
aS'Mickey Rooney'
p74
aS'James Stewart'
p75
ag75
aS'Charlie Chaplin'
p76
aS'Henry Fonda'
p77
aS'Raymond Massey'
p78
ag73
ag66
aS'Cary Grant'
p79
ag67
ag70
aS'Orson Welles'
p80
ag71
aS'Ronald Colman'
p81
ag66
aS'Walter Pidgeon'
p82
aS'Monty Woolley'
p83
aS'Paul Lukas'
p84
aS'Humphrey Bogart'
p85
ag66
ag82
ag74
aS'Bing Crosby'
p86
ag69
aS'Barry Fitzgerald'
p87
ag79
aS'Alexander Knox'
p88
aS'Ray Milland'
p89
ag86
aS'Gene Kelly'
p90
aS'Gregory Peck'
p91
aS'Cornel Wilde'
p92
ag53
ag73
aS'Larry Parks'
p93
ag91
ag75
ag81
aS'John Garfield'
p94
ag91
ag62
aS'Michael Redgrave'
p95
ag73
aS'Lew Ayres'
p96
aS'Montgomery Clift'
p97
aS'Dan Dailey'
p98
aS'Clifton Webb'
p99
aS'Broderick Crawford'
p100
aS'Kirk Douglas'
p101
ag91
aS'Richard Todd'
p102
aS'John Wayne'
p103
aS'Jos\xc3\xa9 Ferrer'
p104
aS'Louis Calhern'
p105
aS'William Holden'
p106
ag75
ag68
ag85
aS'Marlon Brando'
p107
ag97
aS'Arthur Kennedy'
p108
ag53
ag66
ag107
ag101
ag104
aS'Alec Guinness'
p109
ag106
ag107
aS'Richard Burton'
p110
ag97
aS'Burt Lancaster'
p111
ag107
ag85
ag86
aS'James Mason'
p112
aS"Dan O'Herlihy"
p113
aS'Ernest Borgnine'
p114
ag71
aS'James Dean'
p115
aS'Frank Sinatra'
p116
ag68
aS'Yul Brynner'
p117
aS'James Dean'
p118
ag101
aS'Rock Hudson'
p119
ag73
ag109
ag107
aS'Anthony Franciosa'
p120
ag58
aS'Anthony Quinn'
p121
aS'David Niven'
p122
aS'Tony Curtis'
p123
aS'Paul Newman'
p124
aS'Sidney Poitier'
p125
ag68
aS'Charlton Heston'
p126
aS'Laurence Harvey'
p127
aS'Jack Lemmon'
p128
ag42
ag75
ag111
aS'Trevor Howard'
p129
ag128
ag73
ag68
aS'Maximilian Schell'
p130
ag69
ag124
ag68
aS'Stuart Whitman'
p131
ag91
ag111
ag128
aS'Marcello Mastroianni'
p132
aS"Peter O'Toole"
p133
ag125
aS'Albert Finney'
p134
aS'Richard Harris'
p135
aS'Rex Harrison'
p136
ag124
ag136
ag110
ag133
ag121
aS'Peter Sellers'
p137
aS'Lee Marvin'
p138
ag110
ag73
aS'Rod Steiger'
p139
aS'Oskar Werner'
p140
aS'Paul Scofield'
p141
aS'Alan Arkin'
p142
ag110
aS'Michael Caine'
p143
aS'Steve McQueen'
p144
ag139
aS'Warren Beatty'
p145
aS'Dustin Hoffman'
p146
ag124
aS'Spencer Tracy'
p147
aS'Cliff Robertson'
p148
ag142
aS'Alan Bates'
p149
aS'Ron Moody'
p150
ag133
ag103
ag110
ag146
ag133
aS'Jon Voight'
p151
aS'George C. Scott'
p152
aS'Melvyn Douglas'
p153
aS'James Earl Jones'
p154
aS'Jack Nicholson'
p155
aS"Ryan O'Neal"
p156
aS'Gene Hackman'
p157
aS'Peter Finch'
p158
aS'Walter Matthau'
p159
aS'George C. Scott'
p160
aS'Topol'
p161
aS'Marlon Brando'
p162
ag143
ag73
ag133
aS'Paul Winfield'
p163
ag128
ag107
ag155
aS'Al Pacino'
p164
aS'Robert Redford'
p165
aS'Art Carney'
p166
ag134
ag146
ag155
ag164
ag155
ag159
ag164
ag130
aS'James Whitmore'
p167
aS'Peter Finch'
p168
aS'Robert De Niro'
p169
aS'Giancarlo Giannini'
p170
ag106
aS'Sylvester Stallone'
p171
aS'Richard Dreyfuss'
p172
aS'Woody Allen'
p173
ag110
ag132
aS'John Travolta'
p174
ag151
ag145
aS'Gary Busey'
p175
ag169
ag73
ag146
ag128
ag164
aS'Roy Scheider'
p176
ag137
ag169
aS'Robert Duvall'
p177
aS'John Hurt'
p178
ag128
ag133
ag77
ag145
ag111
aS'Dudley Moore'
p179
ag124
aS'Ben Kingsley'
p180
ag146
ag128
ag124
ag133
ag177
ag143
aS'Tom Conti'
p181
aS'Tom Courtenay'
p182
ag134
aS'F. Murray Abraham'
p183
aS'Jeff Bridges'
p184
ag134
aS'Tom Hulce'
p185
aS'Sam Waterston'
p186
aS'William Hurt'
p187
aS'Harrison Ford'
p188
aS'James Garner'
p189
ag155
ag151
ag124
aS'Dexter Gordon'
p190
aS'Bob Hoskins'
p191
ag187
aS'James Woods'
p192
aS'Michael Douglas'
p193
ag187
ag132
ag155
aS'Robin Williams'
p194
ag146
ag157
aS'Tom Hanks'
p195
aS'Edward James Olmos'
p196
aS'Max von Sydow'
p197
aS'Daniel Day-Lewis'
p198
aS'Kenneth Branagh'
p199
aS'Tom Cruise'
p200
aS'Morgan Freeman'
p201
ag194
aS'Jeremy Irons'
p202
aS'Kevin Costner'
p203
ag169
aS'G\xc3\xa9rard Depardieu'
p204
ag135
aS'Anthony Hopkins'
p205
ag145
ag169
aS'Nick Nolte'
p206
ag194
ag164
aS'Robert Downey Jr.'
p207
aS'Clint Eastwood'
p208
aS'Stephen Rea'
p209
aS'Denzel Washington'
p210
ag195
ag198
aS'Laurence Fishburne'
p211
ag205
aS'Liam Neeson'
p212
ag195
ag201
aS'Nigel Hawthorne'
p213
ag124
ag174
aS'Nicolas Cage'
p214
ag172
ag205
aS'Sean Penn'
p215
aS'Massimo Troisi'
p216
aS'Geoffrey Rush'
p217
ag200
aS'Ralph Fiennes'
p218
aS'Woody Harrelson'
p219
aS'Billy Bob Thornton'
p220
ag155
aS'Matt Damon'
p221
ag177
aS'Peter Fonda'
p222
ag146
aS'Roberto Benigni'
p223
ag195
aS'Ian McKellen'
p224
ag206
aS'Edward Norton'
p225
aS'Kevin Spacey'
p226
aS'Russell Crowe'
p227
aS'Richard Farnsworth'
p228
ag215
ag210
ag227
aS'Javier Bardem'
p229
ag195
aS'Ed Harris'
p230
ag217
ag210
ag227
ag215
aS'Will Smith'
p231
aS'Tom Wilkinson'
p232
aS'Adrien Brody'
p233
ag214
ag143
ag198
ag155
ag215
aS'Johnny Depp'
p234
ag180
aS'Jude Law'
p235
aS'Bill Murray'
p236
aS'Jamie Foxx'
p237
aS'Don Cheadle'
p238
ag234
aS'Leonardo DiCaprio'
p239
ag208
aS'Philip Seymour Hoffman'
p240
aS'Terrence Howard'
p241
aS'Heath Ledger'
p242
aS'Joaquin Phoenix'
p243
aS'David Strathairn'
p244
aS'Forest Whitaker'
p245
ag239
aS'Ryan Gosling'
p246
ag133
ag231
ag198
aS'George Clooney'
p247
ag234
aS'Tommy Lee Jones'
p248
aS'Viggo Mortensen'
p249
ag215
aS'Richard Jenkins'
p250
aS'Frank Langella'
p251
aS'Brad Pitt'
p252
aS'Mickey Rourke'
p253
ag184
ag247
aS'Colin Firth'
p254
ag201
aS'Jeremy Renner'
p255
ag254
ag229
ag184
aS'Jesse Eisenberg'
p256
aS'James Franco'
p257
aS'Jean Dujardin'
p258
aS'Demi\xc3\xa1n Bichir'
p259
ag247
aS'Gary Oldman'
p260
ag252
ag198
aS'Bradley Cooper'
p261
aS'Hugh Jackman'
p262
ag243
ag210
aS'Matthew McConaughey'
p263
aS'Christian Bale'
p264
aS'Bruce Dern'
p265
ag239
aS'Chiwetel Ejiofor'
p266
aS'Eddie Redmayne'
p267
aS'Steve Carell'
p268
ag261
aS'Benedict Cumberbatch'
p269
aS'Michael Keaton'
p270
ag239
aS'Bryan Cranston'
p271
ag221
aS'Michael Fassbender'
p272
ag267
aS'Casey Affleck'
p273
aS'Andrew Garfield'
p274
ag246
ag249
ag210
aS'Walter Brennan'
p275
aS'Mischa Auer'
p276
aS'Stuart Erwin'
p277
aS'Basil Rathbone'
p278
aS'Akim Tamiroff'
p279
aS'Joseph Schildkraut'
p280
aS'Ralph Bellamy'
p281
aS'Thomas Mitchell'
p282
aS'H. B. Warner'
p283
aS'Roland Young'
p284
ag275
ag94
aS'Gene Lockhart'
p285
aS'Robert Morley'
p286
ag278
ag282
aS'Brian Aherne'
p287
aS'Harry Carey'
p288
aS'Brian Donlevy'
p289
aS'Claude Rains'
p290
ag275
aS'Albert Bassermann'
p291
aS'William Gargan'
p292
aS'Jack Oakie'
p293
aS'James Stephenson'
p294
aS'Donald Crisp'
p295
ag275
aS'Charles Coburn'
p296
aS'James Gleason'
p297
aS'Sydney Greenstreet'
p298
aS'Van Heflin'
p299
aS'William Bendix'
p300
ag67
ag61
aS'Henry Travers'
p301
ag296
aS'Charles Bickford'
p302
aS'J. Carrol Naish'
p303
ag290
ag279
ag87
aS'Hume Cronyn'
p304
ag290
ag99
ag83
aS'James Dunn'
p305
aS'Michael Chekhov'
p306
aS'John Dall'
p307
aS'Robert Mitchum'
p308
ag303
aS'Harold Russell'
p309
ag296
aS'William Demarest'
p310
ag290
ag99
aS'Edmund Gwenn'
p311
ag302
aS'Thomas Gomez'
p312
aS'Robert Ryan'
p313
aS'Richard Widmark'
p314
ag67
ag302
ag104
aS'Oskar Homolka'
p315
aS'Cecil Kellaway'
p316
aS'Dean Jagger'
p317
aS'John Ireland'
p318
ag108
aS'Ralph Richardson'
p319
ag167
aS'George Sanders'
p320
aS'Jeff Chandler'
p321
ag311
aS'Sam Jaffe'
p322
aS'Erich von Stroheim'
p323
aS'Karl Malden'
p324
aS'Leo Genn'
p325
aS'Kevin McCarthy'
p326
aS'Peter Ustinov'
p327
aS'Gig Young'
p328
ag121
ag110
aS'Arthur Hunnicutt'
p329
ag63
aS'Jack Palance'
p330
ag116
aS'Eddie Albert'
p331
aS'Brandon deWilde'
p332
ag330
aS'Robert Strauss'
p333
aS"Edmond O'Brien"
p334
aS'Lee J. Cobb'
p335
ag324
ag139
aS'Tom Tully'
p336
ag128
ag108
aS'Joe Mantell'
p337
aS'Sal Mineo'
p338
aS"Arthur O'Connell"
p339
ag121
aS'Don Murray'
p340
aS'Anthony Perkins'
p341
ag74
aS'Robert Stack'
p342
aS'Red Buttons'
p343
aS'Vittorio De Sica'
p344
aS'Sessue Hayakawa'
p345
ag108
aS'Russ Tamblyn'
p346
aS'Burl Ives'
p347
aS'Theodore Bikel'
p348
ag335
ag108
ag328
aS'Hugh Griffith'
p349
ag339
ag160
aS'Robert Vaughn'
p350
aS'Ed Wynn'
p351
ag327
aS'Peter Falk'
p352
aS'Jack Kruschen'
p353
ag338
aS'Chill Wills'
p354
aS'George Chakiris'
p355
ag97
ag352
aS'Jackie Gleason'
p356
aS'George C. Scott'
p357
aS'Ed Begley'
p358
aS'Victor Buono'
p359
aS'Telly Savalas'
p360
aS'Omar Sharif'
p361
aS'Terence Stamp'
p362
ag153
aS'Nick Adams'
p363
aS'Bobby Darin'
p364
ag349
aS'John Huston'
p365
ag327
aS'John Gielgud'
p366
aS'Stanley Holloway'
p367
ag334
aS'Lee Tracy'
p368
aS'Martin Balsam'
p369
aS'Ian Bannen'
p370
ag182
aS'Michael Dunn'
p371
aS'Frank Finlay'
p372
ag159
aS'Mako'
p373
ag112
aS'George Segal'
p374
aS'Robert Shaw'
p375
aS'George Kennedy'
p376
aS'John Cassavetes'
p377
ag157
ag316
aS'Michael J. Pollard'
p378
aS'Jack Albertson'
p379
aS'Seymour Cassel'
p380
aS'Daniel Massey'
p381
aS'Jack Wild'
p382
aS'Gene Wilder'
p383
ag328
aS'Rupert Crosse'
p384
aS'Elliott Gould'
p385
ag155
aS'Anthony Quayle'
p386
aS'John Mills'
p387
aS'Richard S. Castellano'
p388
aS'Chief Dan George'
p389
ag157
aS'John Marley'
p390
aS'Ben Johnson'
p391
ag184
aS'Leonard Frey'
p392
aS'Richard Jaeckel'
p393
ag176
aS'Joel Grey'
p394
ag331
aS'James Caan'
p395
ag177
ag164
aS'John Houseman'
p396
aS'Vincent Gardenia'
p397
aS'Jack Gilford'
p398
aS'Jason Miller'
p399
aS'Randy Quaid'
p400
ag169
aS'Fred Astaire'
p401
ag184
aS'Michael V. Gazzo'
p402
aS'Lee Strasberg'
p403
aS'George Burns'
p404
aS'Brad Dourif'
p405
aS'Burgess Meredith'
p406
aS'Chris Sarandon'
p407
aS'Jack Warden'
p408
aS'Jason Robards'
p409
aS'Ned Beatty'
p410
ag406
ag73
aS'Burt Young'
p411
ag409
aS'Mikhail Baryshnikov'
p412
aS'Peter Firth'
p413
ag109
ag130
aS'Christopher Walken'
p414
ag265
ag228
ag178
ag408
ag153
ag177
aS'Frederic Forrest'
p415
aS'Justin Henry'
p416
ag74
aS'Timothy Hutton'
p417
aS'Judd Hirsch'
p418
aS"Michael O'Keefe"
p419
aS'Joe Pesci'
p420
ag409
ag366
aS'James Coco'
p421
aS'Ian Holm'
p422
ag155
aS'Howard Rollins'
p423
aS'Louis Gossett, Jr.'
p424
aS'Charles Durning'
p425
aS'John Lithgow'
p426
ag112
aS'Robert Preston'
p427
ag155
ag425
ag426
aS'Sam Shepard'
p428
aS'Rip Torn'
p429
aS'Haing S. Ngor'
p430
aS'Adolph Caesar'
p431
aS'John Malkovich'
p432
aS'Pat Morita'
p433
aS'Ralph Richardson'
p434
aS'Don Ameche'
p435
aS'Klaus Maria Brandauer'
p436
aS'William Hickey'
p437
aS'Robert Loggia'
p438
aS'Eric Roberts'
p439
ag143
aS'Tom Berenger'
p440
aS'Willem Dafoe'
p441
aS'Denholm Elliott'
p442
aS'Dennis Hopper'
p443
aS'Sean Connery'
p444
aS'Albert Brooks'
p445
ag201
ag397
ag210
aS'Kevin Kline'
p446
ag109
aS'Martin Landau'
p447
aS'River Phoenix'
p448
aS'Dean Stockwell'
p449
ag210
aS'Danny Aiello'
p450
aS'Dan Aykroyd'
p451
ag107
ag447
ag420
aS'Bruce Davison'
p452
aS'Andy Garc\xc3\xada'
p453
aS'Graham Greene'
p454
ag164
ag330
ag248
aS'Harvey Keitel'
p455
ag180
aS'Michael Lerner'
p456
ag157
aS'Jaye Davidson'
p457
ag155
ag164
aS'David Paymer'
p458
ag248
ag239
ag218
ag432
aS'Pete Postlethwaite'
p459
ag447
aS'Samuel L. Jackson'
p460
aS'Chazz Palminteri'
p461
ag141
aS'Gary Sinise'
p462
ag226
aS'James Cromwell'
p463
ag230
ag252
aS'Tim Roth'
p464
aS'Cuba Gooding Jr.'
p465
aS'William H. Macy'
p466
aS'Armin Mueller-Stahl'
p467
ag225
ag192
ag194
aS'Robert Forster'
p468
ag205
aS'Greg Kinnear'
p469
aS'Burt Reynolds'
p470
aS'James Coburn'
p471
ag177
ag230
ag217
ag220
ag143
ag200
aS'Michael Clarke Duncan'
p472
ag235
aS'Haley Joel Osment'
p473
aS'Benicio del Toro'
p474
ag184
ag441
ag134
ag243
aS'Jim Broadbent'
p475
aS'Ethan Hawke'
p476
ag180
ag224
ag151
aS'Chris Cooper'
p477
ag230
ag124
aS'John C. Reilly'
p478
ag414
aS'Tim Robbins'
p479
aS'Alec Baldwin'
p480
ag474
aS'Djimon Hounsou'
p481
aS'Ken Watanabe'
p482
ag201
aS'Alan Alda'
p483
aS'Thomas Haden Church'
p484
ag237
aS'Clive Owen'
p485
ag247
aS'Matt Dillon'
p486
aS'Paul Giamatti'
p487
aS'Jake Gyllenhaal'
p488
ag187
ag142
aS'Jackie Earle Haley'
p489
ag481
aS'Eddie Murphy'
p490
aS'Mark Wahlberg'
p491
ag229
ag273
ag240
aS'Hal Holbrook'
p492
ag232
aS'Heath Ledger'
p493
aS'Josh Brolin'
p494
ag207
ag240
aS'Michael Shannon'
p495
aS'Christoph Waltz'
p496
ag221
ag219
aS'Christopher Plummer'
p497
aS'Stanley Tucci'
p498
ag264
aS'John Hawkes'
p499
ag255
aS'Mark Ruffalo'
p500
ag217
ag497
ag199
aS'Jonah Hill'
p501
ag206
ag197
ag496
ag142
ag169
ag240
ag248
aS'Jared Leto'
p502
aS'Barkhad Abdi'
p503
ag261
ag272
ag501
aS'J. K. Simmons'
p504
ag177
ag476
ag225
ag500
aS'Mark Rylance'
p505
ag264
aS'Tom Hardy'
p506
ag500
ag171
aS'Mahershala Ali'
p507
ag184
aS'Lucas Hedges'
p508
aS'Dev Patel'
p509
ag495
aS'Gale Sondergaard'
p510
aS'Beulah Bondi'
p511
aS'Alice Brady'
p512
aS'Bonita Granville'
p513
aS'Maria Ouspenskaya'
p514
ag512
aS'Andrea Leeds'
p515
aS'Anne Shirley'
p516
aS'Claire Trevor'
p517
aS'May Whitty'
p518
aS'Fay Bainter'
p519
ag511
aS'Billie Burke'
p520
aS'Spring Byington'
p521
aS'Miliza Korjus'
p522
aS'Hattie McDaniel'
p523
aS'Olivia de Havilland'
p524
aS'Geraldine Fitzgerald'
p525
aS'Edna May Oliver'
p526
ag514
aS'Jane Darwell'
p527
aS'Judith Anderson'
p528
aS'Ruth Hussey'
p529
aS"Barbara O'Neil"
p530
aS'Marjorie Rambeau'
p531
aS'Mary Astor'
p532
aS'Sara Allgood'
p533
aS'Patricia Collinge'
p534
aS'Teresa Wright'
p535
aS'Margaret Wycherly'
p536
ag535
aS'Gladys Cooper'
p537
aS'Agnes Moorehead'
p538
aS'Susan Peters'
p539
ag518
aS'Katina Paxinou'
p540
ag537
aS'Paulette Goddard'
p541
aS'Anne Revere'
p542
aS'Lucile Watson'
p543
aS'Ethel Barrymore'
p544
aS'Jennifer Jones'
p545
aS'Angela Lansbury'
p546
aS'Aline MacMahon'
p547
ag538
ag542
aS'Eve Arden'
p548
aS'Ann Blyth'
p549
ag546
aS'Joan Lorring'
p550
aS'Anne Baxter'
p551
ag544
aS'Lillian Gish'
p552
aS'Flora Robson'
p553
ag510
aS'Celeste Holm'
p554
ag544
aS'Gloria Grahame'
p555
aS'Marjorie Main'
p556
ag542
ag517
aS'Barbara Bel Geddes'
p557
aS'Ellen Corby'
p558
ag538
aS'Jean Simmons'
p559
aS'Mercedes McCambridge'
p560
ag544
ag554
aS'Elsa Lanchester'
p561
aS'Ethel Waters'
p562
aS'Josephine Hull'
p563
aS'Hope Emerson'
p564
ag554
aS'Nancy Olson'
p565
aS'Thelma Ritter'
p566
aS'Kim Hunter'
p567
aS'Joan Blondell'
p568
aS'Mildred Dunnock'
p569
aS'Lee Grant'
p570
ag566
ag555
aS'Jean Hagen'
p571
aS'Colette Marchand'
p572
aS'Terry Moore'
p573
ag566
aS'Donna Reed'
p574
aS'Grace Kelly'
p575
aS'Geraldine Page'
p576
ag531
ag566
aS'Eva Marie Saint'
p577
aS'Nina Foch'
p578
aS'Katy Jurado'
p579
aS'Jan Sterling'
p580
ag517
aS'Jo Van Fleet'
p581
aS'Betsy Blair'
p582
aS'Peggy Lee'
p583
aS'Marisa Pavan'
p584
aS'Natalie Wood'
p585
aS'Dorothy Malone'
p586
ag569
aS'Eileen Heckart'
p587
ag560
aS'Patty McCormack'
p588
aS'Miyoshi Umeki'
p589
aS'Carolyn Jones'
p590
ag561
aS'Hope Lange'
p591
aS'Diane Varsi'
p592
aS'Wendy Hiller'
p593
aS'Peggy Cass'
p594
aS'Martha Hyer'
p595
aS'Maureen Stapleton'
p596
aS'Cara Williams'
p597
aS'Shelley Winters'
p598
aS'Hermione Baddeley'
p599
aS'Susan Kohner'
p600
aS'Juanita Moore'
p601
ag566
aS'Shirley Jones'
p602
aS'Glynis Johns'
p603
aS'Shirley Knight'
p604
aS'Janet Leigh'
p605
aS'Mary Ure'
p606
aS'Rita Moreno'
p607
ag519
aS'Judy Garland'
p608
aS'Lotte Lenya'
p609
aS'Una Merkel'
p610
aS'Patty Duke'
p611
aS'Mary Badham'
p612
ag604
ag546
ag566
aS'Margaret Rutherford'
p613
aS'Diane Cilento'
p614
aS'Edith Evans'
p615
aS'Joyce Redman'
p616
aS'Lilia Skala'
p617
aS'Lila Kedrova'
p618
ag537
ag615
aS'Grayson Hall'
p619
ag538
ag598
aS'Ruth Gordon'
p620
ag616
aS'Maggie Smith'
p621
aS'Peggy Wood'
p622
aS'Sandy Dennis'
p623
ag593
aS'Jocelyne LaGarde'
p624
aS'Vivien Merchant'
p625
ag576
aS'Estelle Parsons'
p626
aS'Carol Channing'
p627
aS'Mildred Natwick'
p628
aS'Beah Richards'
p629
aS'Katharine Ross'
p630
ag620
aS'Lynn Carlin'
p631
aS'Sondra Locke'
p632
aS'Kay Medford'
p633
ag626
aS'Goldie Hawn'
p634
aS'Catherine Burns'
p635
aS'Dyan Cannon'
p636
aS'Sylvia Miles'
p637
aS'Susannah York'
p638
aS'Helen Hayes'
p639
aS'Karen Black'
p640
ag570
aS'Sally Kellerman'
p641
ag596
aS'Cloris Leachman'
p642
aS'Ann-Margret'
p643
aS'Ellen Burstyn'
p644
aS'Barbara Harris'
p645
aS'Margaret Leighton'
p646
ag587
aS'Jeannie Berlin'
p647
ag576
aS'Susan Tyrrell'
p648
ag598
aS"Tatum O'Neal"
p649
aS'Linda Blair'
p650
aS'Candy Clark'
p651
aS'Madeline Kahn'
p652
aS'Sylvia Sidney'
p653
aS'Ingrid Bergman'
p654
aS'Valentina Cortese'
p655
ag652
aS'Diane Ladd'
p656
aS'Talia Shire'
p657
ag570
aS'Ronee Blakley'
p658
ag637
aS'Lily Tomlin'
p659
aS'Brenda Vaccaro'
p660
aS'Beatrice Straight'
p661
aS'Jane Alexander'
p662
aS'Jodie Foster'
p663
ag570
aS'Piper Laurie'
p664
aS'Vanessa Redgrave'
p665
aS'Leslie Browne'
p666
aS'Quinn Cummings'
p667
aS'Melinda Dillon'
p668
aS'Tuesday Weld'
p669
ag621
ag636
aS'Penelope Milford'
p670
ag596
aS'Meryl Streep'
p671
ag671
ag662
aS'Barbara Barrie'
p672
aS'Candice Bergen'
p673
aS'Mariel Hemingway'
p674
aS'Mary Steenburgen'
p675
aS'Eileen Brennan'
p676
aS'Eva Le Gallienne'
p677
aS'Cathy Moriarty'
p678
aS'Diana Scarwid'
p679
ag596
ag668
aS'Jane Fonda'
p680
aS'Joan Hackett'
p681
aS'Elizabeth McGovern'
p682
aS'Jessica Lange'
p683
aS'Glenn Close'
p684
aS'Teri Garr'
p685
aS'Kim Stanley'
p686
aS'Lesley Ann Warren'
p687
aS'Linda Hunt'
p688
aS'Cher'
p689
ag684
aS'Amy Irving'
p690
aS'Alfre Woodard'
p691
aS'Peggy Ashcroft'
p692
ag684
aS'Lindsay Crouse'
p693
aS'Christine Lahti'
p694
ag576
aS'Anjelica Huston'
p695
aS'Margaret Avery'
p696
aS'Amy Madigan'
p697
aS'Meg Tilly'
p698
aS'Oprah Winfrey'
p699
aS'Dianne Wiest'
p700
aS'Tess Harper'
p701
ag664
aS'Mary Elizabeth Mastrantonio'
p702
ag621
aS'Olympia Dukakis'
p703
aS'Norma Aleandro'
p704
aS'Anne Archer'
p705
aS'Anne Ramsey'
p706
aS'Ann Sothern'
p707
aS'Geena Davis'
p708
aS'Joan Cusack'
p709
aS'Frances McDormand'
p710
aS'Michelle Pfeiffer'
p711
aS'Sigourney Weaver'
p712
aS'Brenda Fricker'
p713
ag695
aS'Lena Olin'
p714
aS'Julia Roberts'
p715
ag700
aS'Whoopi Goldberg'
p716
aS'Annette Bening'
p717
aS'Lorraine Bracco'
p718
ag656
aS'Mary McDonnell'
p719
aS'Mercedes Ruehl'
p720
ag656
aS'Juliette Lewis'
p721
aS'Kate Nelligan'
p722
aS'Jessica Tandy'
p723
aS'Marisa Tomei'
p724
aS'Judy Davis'
p725
aS'Joan Plowright'
p726
ag665
aS'Miranda Richardson'
p727
aS'Anna Paquin'
p728
aS'Holly Hunter'
p729
aS'Rosie Perez'
p730
aS'Winona Ryder'
p731
aS'Emma Thompson'
p732
ag700
aS'Rosemary Harris'
p733
aS'Helen Mirren'
p734
aS'Uma Thurman'
p735
aS'Jennifer Tilly'
p736
aS'Mira Sorvino'
p737
aS'Joan Allen'
p738
aS'Kathleen Quinlan'
p739
aS'Mare Winningham'
p740
aS'Kate Winslet'
p741
aS'Juliette Binoche'
p742
ag738
aS'Lauren Bacall'
p743
aS'Barbara Hershey'
p744
aS'Marianne Jean-Baptiste'
p745
aS'Kim Basinger'
p746
ag709
aS'Minnie Driver'
p747
aS'Julianne Moore'
p748
aS'Gloria Stuart'
p749
aS'Judi Dench'
p750
aS'Kathy Bates'
p751
aS'Brenda Blethyn'
p752
aS'Rachel Griffiths'
p753
aS'Lynn Redgrave'
p754
aS'Angelina Jolie'
p755
aS'Toni Collette'
p756
aS'Catherine Keener'
p757
aS'Samantha Morton'
p758
aS'Chlo\xc3\xab Sevigny'
p759
aS'Marcia Gay Harden'
p760
ag750
aS'Kate Hudson'
p761
ag710
aS'Julie Walters'
p762
aS'Jennifer Connelly'
p763
ag734
ag621
ag724
ag741
aS'Catherine Zeta-Jones'
p764
ag751
ag748
aS'Queen Latifah'
p765
ag671
aS'Ren\xc3\xa9e Zellweger'
p766
aS'Shohreh Aghdashloo'
p767
aS'Patricia Clarkson'
p768
ag760
ag729
aS'Cate Blanchett'
p769
aS'Laura Linney'
p770
aS'Virginia Madsen'
p771
aS'Sophie Okonedo'
p772
aS'Natalie Portman'
p773
aS'Rachel Weisz'
p774
aS'Amy Adams'
p775
ag757
ag710
aS'Michelle Williams'
p776
aS'Jennifer Hudson'
p777
aS'Adriana Barraza'
p778
ag769
aS'Abigail Breslin'
p779
aS'Rinko Kikuchi'
p780
aS'Tilda Swinton'
p781
ag769
aS'Ruby Dee'
p782
aS'Saoirse Ronan'
p783
aS'Amy Ryan'
p784
aS'Pen\xc3\xa9lope Cruz'
p785
ag775
aS'Viola Davis'
p786
aS'Taraji P. Henson'
p787
ag724
aS"Mo'Nique"
p788
ag785
aS'Vera Farmiga'
p789
aS'Maggie Gyllenhaal'
p790
aS'Anna Kendrick'
p791
aS'Melissa Leo'
p792
ag775
aS'Helena Bonham Carter'
p793
aS'Hailee Steinfeld'
p794
aS'Jacki Weaver'
p795
aS'Octavia Spencer'
p796
aS'B\xc3\xa9r\xc3\xa9nice Bejo'
p797
aS'Jessica Chastain'
p798
aS'Melissa McCarthy'
p799
aS'Janet McTeer'
p800
aS'Anne Hathaway'
p801
ag775
aS'Sally Field'
p802
aS'Helen Hunt'
p803
ag795
aS"Lupita Nyong'o"
p804
aS'Sally Hawkins'
p805
aS'Jennifer Lawrence'
p806
ag715
aS'June Squibb'
p807
aS'Patricia Arquette'
p808
aS'Laura Dern'
p809
aS'Keira Knightley'
p810
aS'Emma Stone'
p811
ag671
aS'Alicia Vikander'
p812
aS'Jennifer Jason Leigh'
p813
aS'Rooney Mara'
p814
aS'Rachel McAdams'
p815
ag741
ag786
aS'Naomie Harris'
p816
aS'Nicole Kidman'
p817
ag796
ag776
aS'Janet Gaynor'
p818
aS'Louise Dresser'
p819
aS'Gloria Swanson'
p820
aS'Mary Pickford'
p821
aS'Ruth Chatterton'
p822
aS'Betty Compson'
p823
aS'Jeanne Eagels'
p824
aS'Corinne Griffith'
p825
aS'Bessie Love'
p826
aS'Norma Shearer'
p827
aS'Nancy Carroll'
p828
ag822
aS'Greta Garbo'
p829
aS'Norma Shearer'
p830
ag820
aS'Marie Dressler'
p831
aS'Marlene Dietrich'
p832
aS'Irene Dunne'
p833
aS'Ann Harding'
p834
ag830
ag639
ag831
aS'Lynn Fontanne'
p835
aS'Katharine Hepburn'
p836
aS'May Robson'
p837
aS'Diana Wynyard'
p838
aS'Claudette Colbert'
p839
aS'Grace Moore'
p840
ag830
aS'Bette Davis'
p841
aS'Bette Davis'
p842
aS'Elisabeth Bergner'
p843
ag839
ag836
aS'Miriam Hopkins'
p844
aS'Merle Oberon'
p845
aS'Luise Rainer'
p846
ag833
aS'Gladys George'
p847
aS'Carole Lombard'
p848
ag830
ag846
ag833
aS'Greta Garbo'
p849
ag818
aS'Barbara Stanwyck'
p850
ag842
ag519
ag593
ag830
aS'Margaret Sullavan'
p851
aS'Vivien Leigh'
p852
ag842
ag833
ag849
aS'Greer Garson'
p853
aS'Ginger Rogers'
p854
ag842
aS'Joan Fontaine'
p855
ag836
aS'Martha Scott'
p856
ag855
ag842
ag524
ag853
ag850
ag853
ag842
ag836
aS'Rosalind Russell'
p857
ag535
ag545
aS'Jean Arthur'
p858
ag654
ag855
ag853
ag654
ag839
ag842
ag853
ag850
aS'Joan Crawford'
p859
ag654
ag853
ag545
aS'Gene Tierney'
p860
ag524
aS'Celia Johnson'
p861
ag545
ag857
aS'Jane Wyman'
p862
aS'Loretta Young'
p863
ag859
aS'Susan Hayward'
p864
aS'Dorothy McGuire'
p865
ag857
ag862
ag654
ag524
ag833
ag850
ag524
aS'Jeanne Crain'
p866
ag864
aS'Deborah Kerr'
p867
ag863
aS'Judy Holliday'
p868
ag551
ag842
aS'Eleanor Parker'
p869
ag820
ag852
ag836
ag869
ag598
ag862
aS'Shirley Booth'
p870
ag859
ag842
aS'Julie Harris'
p871
ag864
aS'Audrey Hepburn'
p872
aS'Leslie Caron'
p873
aS'Ava Gardner'
p874
ag867
aS'Maggie McNamara'
p875
ag575
aS'Dorothy Dandridge'
p876
ag608
ag872
ag862
aS'Anna Magnani'
p877
ag864
ag836
ag545
ag869
ag654
aS'Carroll Baker'
p878
ag836
aS'Nancy Kelly'
p879
ag867
aS'Joanne Woodward'
p880
ag867
ag877
aS'Elizabeth Taylor'
p881
aS'Lana Turner'
p882
ag864
ag867
aS'Shirley MacLaine'
p883
ag857
ag881
aS'Simone Signoret'
p884
aS'Doris Day'
p885
ag872
ag836
ag881
ag881
ag853
ag867
ag883
aS'Melina Mercouri'
p886
aS'Sophia Loren'
p887
ag872
ag664
ag576
ag585
aS'Anne Bancroft'
p888
ag842
ag836
ag576
aS'Lee Remick'
p889
aS'Patricia Neal'
p890
ag873
ag883
aS'Rachel Roberts'
p891
ag585
aS'Julie Andrews'
p892
ag888
ag887
aS'Debbie Reynolds'
p893
ag686
aS'Julie Christie'
p894
ag892
aS'Samantha Eggar'
p895
aS'Elizabeth Hartman'
p896
ag884
ag881
aS'Anouk Aim\xc3\xa9e'
p897
aS'Ida Kami\xc5\x84ska'
p898
ag754
ag665
ag836
ag888
aS'Faye Dunaway'
p899
ag615
ag872
aS'Katharine Hepburn'
p900
aS'Barbra Streisand'
p901
ag890
ag665
ag880
ag621
aS'Genevi\xc3\xa8ve Bujold'
p902
ag680
aS'Liza Minnelli'
p903
ag559
aS'Glenda Jackson'
p904
ag662
aS'Ali MacGraw'
p905
aS'Sarah Miles'
p906
aS'Carrie Snodgress'
p907
ag680
ag894
ag904
ag665
aS'Janet Suzman'
p908
ag903
aS'Diana Ross'
p909
ag621
aS'Cicely Tyson'
p910
aS'Liv Ullmann'
p911
ag904
ag644
aS'Marsha Mason'
p912
aS'Barbra Streisand'
p913
ag880
ag644
aS'Diahann Carroll'
p914
ag899
aS'Valerie Perrine'
p915
aS'Gena Rowlands'
p916
aS'Louise Fletcher'
p917
aS'Isabelle Adjani'
p918
ag643
ag904
aS'Carol Kane'
p919
ag899
aS'Marie-Christine Barrault'
p920
ag657
aS'Sissy Spacek'
p921
ag911
aS'Diane Keaton'
p922
ag888
ag680
ag883
ag912
ag680
ag654
ag644
aS'Jill Clayburgh'
p923
ag576
ag802
ag923
ag680
ag912
aS'Bette Midler'
p924
ag921
ag644
ag634
aS'Mary Tyler Moore'
p925
ag916
ag836
ag922
ag912
aS'Susan Sarandon'
p926
ag671
ag671
ag892
ag683
ag921
aS'Debra Winger'
p927
ag883
ag662
ag671
ag762
ag927
ag802
ag725
ag683
ag665
ag921
ag576
ag888
ag716
ag683
ag671
aS'Marlee Matlin'
p928
ag680
ag921
aS'Kathleen Turner'
p929
ag712
ag689
ag684
ag729
aS'Sally Kirkland'
p930
ag671
ag663
ag684
aS'Melanie Griffith'
p931
ag671
ag712
ag723
ag918
aS'Pauline Collins'
p932
ag683
ag711
ag751
ag695
ag715
ag671
ag880
ag663
ag708
ag809
ag924
ag926
ag732
aS'Catherine Deneuve'
p933
ag719
ag711
ag926
ag729
aS'Angela Bassett'
p934
aS'Stockard Channing'
p935
ag732
ag927
ag683
ag663
ag727
ag731
ag926
ag926
aS'Elisabeth Shue'
p936
aS'Sharon Stone'
p937
ag671
ag732
ag710
ag752
ag922
aS'Kristin Scott Thomas'
p938
aS'Emily Watson'
p939
ag803
ag793
ag894
ag750
ag741
aS'Gwyneth Paltrow'
p940
ag769
aS'Fernanda Montenegro'
p941
ag671
ag939
aS'Hilary Swank'
p942
ag717
ag800
ag748
ag671
ag715
ag738
ag742
ag644
ag770
aS'Halle Berry'
p943
ag750
ag817
ag921
ag766
ag817
aS'Salma Hayek'
p944
aS'Diane Lane'
p945
ag748
ag766
aS'Charlize Theron'
p946
aS'Keisha Castle-Hughes'
p947
ag922
ag758
aS'Naomi Watts'
p948
ag942
ag717
aS'Catalina Sandino Moreno'
p949
aS'Imelda Staunton'
p950
ag741
aS'Reese Witherspoon'
p951
ag750
aS'Felicity Huffman'
p952
ag810
ag946
ag734
ag785
ag750
ag671
ag741
aS'Marion Cotillard'
p953
ag769
ag894
ag770
aS'Ellen Page'
p954
ag741
ag801
ag755
ag792
ag671
aS'Sandra Bullock'
p955
ag734
aS'Carey Mulligan'
p956
aS'Gabourey Sidibe'
p957
ag671
ag773
ag717
ag817
ag806
ag776
ag671
ag684
ag786
ag814
ag776
ag806
ag798
aS'Emmanuelle Riva'
p958
aS'Quvenzhan\xc3\xa9 Wallis'
p959
ag948
ag769
ag775
ag955
ag750
ag671
ag748
ag953
aS'Felicity Jones'
p960
aS'Rosamund Pike'
p961
ag951
aS'Brie Larson'
p962
ag769
ag806
aS'Charlotte Rampling'
p963
ag783
aS'Isabelle Huppert'
p964
aS'Ruth Negga'
p965
ag773
ag811
ag671
atp966
ba(lp967
g14
(g15
(dp968
g17
I0
sg18
I1
sg19
I1688
sg8
Nstp969
Rp970
a(dp971
S'0.14.1'
p972
(dp973
S'axes'
p974
g13
sS'blocks'
p975
(lp976
(dp977
S'mgr_locs'
p978
c__builtin__
slice
p979
(I0
I1688
I1
tp980
Rp981
sS'values'
p982
g28
sasstp983
bsS'_typ'
p984
S'series'
p985
sg8
S'Actor'
p986
sb.