ccopy_reg
_reconstructor
p0
(cpandas.core.series
Series
p1
c__builtin__
object
p2
Ntp3
Rp4
(dp5
S'_metadata'
p6
(lp7
S'name'
p8
asS'_data'
p9
g0
(cpandas.core.internals
SingleBlockManager
p10
g2
Ntp11
Rp12
((lp13
cpandas.indexes.base
_new_Index
p14
(cpandas.indexes.range
RangeIndex
p15
(dp16
S'start'
p17
I0
sS'step'
p18
I1
sS'stop'
p19
I440
sg8
Nstp20
Rp21
a(lp22
cnumpy.core.multiarray
_reconstruct
p23
(cnumpy
ndarray
p24
(I0
tp25
S'b'
p26
tp27
Rp28
(I1
(I440
tp29
cnumpy
dtype
p30
(S'O8'
p31
I0
I1
tp32
Rp33
(I3
S'|'
p34
NNNI-1
I-1
I63
tp35
bI00
(lp36
S'Frank Borzage'
p37
aS'Herbert Brenon'
p38
aS'King Vidor'
p39
aS'Lewis Milestone'
p40
aS'Ted Wilde'
p41
aS'Frank Lloyd'
p42
aS'Lionel Barrymore'
p43
aS'Harry Beaumont'
p44
aS'Irving Cummings'
p45
ag42
aFnan
aS'Ernst Lubitsch'
p46
aS'Lewis Milestone'
p47
aS'Clarence Brown'
p48
aFnan
aS'Robert Z. Leonard'
p49
ag46
aS'King Vidor'
p50
aS'Norman Taurog'
p51
ag48
ag47
aS'Wesley Ruggles'
p52
aS'Josef von Sternberg'
p53
aS'Frank Borzage'
p54
ag50
ag53
ag42
aS'Frank Capra'
p55
aS'George Cukor'
p56
ag55
aS'Victor Schertzinger'
p57
aS'W. S. Van Dyke'
p58
aS'John Ford'
p59
aS'Henry Hathaway'
p60
ag42
ag55
aS'Gregory La Cava'
p61
ag49
ag58
aS'William Wyler'
p62
aS'Leo McCarey'
p63
aS'William Dieterle'
p64
aS'Sidney Franklin'
p65
ag61
aS'William A. Wellman'
p66
ag55
aS'Michael Curtiz'
p67
aFnan
ag51
ag50
aS'Victor Fleming'
p68
ag55
ag59
aS'Sam Wood'
p69
ag62
ag59
ag56
aS'Alfred Hitchcock'
p70
ag69
ag62
ag59
aS'Alexander Hall'
p71
aS'Howard Hawks'
p72
aS'Orson Welles'
p73
ag62
ag62
ag67
aS'John Farrow'
p74
aS'Mervyn LeRoy'
p75
ag69
ag67
ag48
aS'Henry King'
p76
ag46
aS'George Stevens'
p77
ag63
ag70
ag76
aS'Otto Preminger'
p78
aS'Billy Wilder'
p79
ag79
ag48
ag70
ag63
aS'Jean Renoir'
p80
ag62
ag48
ag55
aS'David Lean'
p81
aS'Robert Siodmak'
p82
aS'Elia Kazan'
p83
ag56
aS'Edward Dmytryk'
p84
aS'Henry Koster'
p85
ag81
aS'John Huston'
p86
aS'Anatole Litvak'
p87
aS'Jean Negulesco'
p88
aS'Laurence Olivier'
p89
aS'Fred Zinnemann'
p90
aS'Joseph L. Mankiewicz'
p91
aS'Carol Reed'
p92
aS'Robert Rossen'
p93
ag66
ag62
ag91
ag56
ag86
ag92
ag79
ag77
ag86
ag83
aS'Vincente Minnelli'
p94
ag62
ag59
aS'Cecil B. DeMille'
p95
ag86
ag91
ag90
ag90
ag77
aS'Charles Walters'
p96
ag79
ag62
ag83
ag70
aS'George Seaton'
p97
ag66
ag79
aS'Delbert Mann'
p98
ag83
ag81
aS'Joshua Logan'
p99
aS'John Sturges'
p100
ag77
aS'Michael Anderson'
p101
aS'Walter Lang'
p102
ag50
ag62
ag81
ag99
aS'Sidney Lumet'
p103
aS'Mark Robson'
p104
ag79
ag94
aS'Richard Brooks'
p105
aS'Stanley Kramer'
p106
ag104
aS'Robert Wise'
p107
ag62
aS'Jack Clayton'
p108
ag77
ag79
ag90
ag79
aS'Jack Cardiff'
p109
aS'Jules Dassin'
p110
ag70
ag90
aS'Robert Wise\nJerome Robbins'
p111
aS'Federico Fellini'
p112
ag106
ag93
aS'J. Lee Thompson'
p113
ag81
aS'Pietro Germi'
p114
aS'Robert Mulligan'
p115
aS'Arthur Penn'
p116
aS'Frank Perry'
p117
aS'Tony Richardson'
p118
ag112
ag83
ag78
aS'Martin Ritt'
p119
ag56
aS'Michael Cacoyannis'
p120
aS'Peter Glenville'
p121
aS'Stanley Kubrick'
p122
aS'Robert Stevenson'
p123
ag107
ag81
aS'John Schlesinger'
p124
aS'Hiroshi Teshigahara'
p125
ag62
ag90
aS'Michelangelo Antonioni'
p126
ag105
aS'Claude Lelouch'
p127
aS'Mike Nichols'
p128
ag128
ag105
aS'Norman Jewison'
p129
ag106
ag116
ag92
aS'Anthony Harvey'
p130
ag122
aS'Gillo Pontecorvo'
p131
aS'Franco Zeffirelli'
p132
ag124
aS'Costa Gavras'
p133
aS'George Roy Hill'
p134
ag116
aS'Sydney Pollack'
p135
aS'Franklin J. Schaffner'
p136
aS'Robert Altman'
p137
ag112
aS'Arthur Hiller'
p138
aS'Ken Russell'
p139
aS'William Friedkin'
p140
aS'Peter Bogdanovich'
p141
ag129
ag122
ag124
aS'Bob Fosse'
p142
aS'John Boorman'
p143
aS'Francis Ford Coppola'
p144
ag91
aS'Jan Troell'
p145
ag134
aS'Ingmar Bergman'
p146
aS'Bernardo Bertolucci'
p147
ag140
aS'George Lucas'
p148
ag144
aS'John Cassavetes'
p149
ag142
aS'Roman Polanski'
p150
aS'Fran\xc3\xa7ois Truffaut'
p151
aS'Milo\xc5\xa1 Forman'
p152
ag137
ag112
ag122
ag103
aS'John G. Avildsen'
p153
ag146
ag103
aS'Alan J. Pakula'
p154
aS'Lina Wertm\xc3\xbcller'
p155
aS'Woody Allen'
p156
ag148
aS'Herbert Ross'
p157
aS'Steven Spielberg'
p158
ag90
aS'Michael Cimino'
p159
ag156
aS'Hal Ashby'
p160
aS'Warren Beatty\nBuck Henry'
p161
aS'Alan Parker'
p162
aS'Robert Benton'
p163
ag144
ag142
aS'\xc3\x89douard Molinaro'
p164
aS'Peter Yates'
p165
aS'Robert Redford'
p166
aS'David Lynch'
p167
ag150
aS'Richard Rush'
p168
aS'Martin Scorsese'
p169
aS'Warren Beatty'
p170
aS'Hugh Hudson'
p171
aS'Louis Malle'
p172
aS'Mark Rydell'
p173
ag158
aS'Richard Attenborough'
p174
ag103
aS'Wolfgang Petersen'
p175
ag135
ag158
aS'James L. Brooks'
p176
aS'Bruce Beresford'
p177
ag146
ag128
ag165
ag152
ag156
ag163
aS'Roland Joff\xc3\xa9'
p178
ag81
ag135
aS'H\xc3\xa9ctor Babenco'
p179
ag86
aS'Akira Kurosawa'
p180
aS'Peter Weir'
p181
aS'Oliver Stone'
p182
ag156
aS'James Ivory'
p183
ag178
ag167
ag147
ag143
aS'Lasse Hallstr\xc3\xb6m'
p184
ag129
aS'Adrian Lyne'
p185
aS'Barry Levinson'
p186
aS'Charles Crichton'
p187
ag128
ag162
ag169
ag182
ag156
aS'Kenneth Branagh'
p188
aS'Jim Sheridan'
p189
ag181
aS'Kevin Costner'
p190
ag144
aS'Stephen Frears'
p191
aS'Barbet Schroeder'
p192
ag169
aS'Jonathan Demme'
p193
ag186
aS'Ridley Scott'
p194
aS'John Singleton'
p195
ag182
aS'Clint Eastwood'
p196
ag137
aS'Martin Brest'
p197
ag183
aS'Neil Jordan'
p198
ag158
ag137
aS'Jane Campion'
p199
ag183
ag189
aS'Robert Zemeckis'
p200
ag156
aS'Krzysztof Kie\xc5\x9blowski'
p201
ag166
aS'Quentin Tarantino'
p202
aS'Mel Gibson'
p203
aS'Mike Figgis'
p204
aS'Chris Noonan'
p205
aS'Michael Radford'
p206
aS'Tim Robbins'
p207
aS'Anthony Minghella'
p208
aS'Joel Coen'
p209
ag152
aS'Scott Hicks'
p210
aS'Mike Leigh'
p211
aS'James Cameron'
p212
aS'Peter Cattaneo'
p213
aS'Atom Egoyan'
p214
aS'Curtis Hanson'
p215
aS'Gus Van Sant'
p216
ag158
aS'Roberto Benigni'
p217
aS'John Madden'
p218
aS'Terrence Malick'
p219
ag181
aS'Sam Mendes'
p220
ag184
aS'Spike Jonze'
p221
aS'Michael Mann'
p222
aS'M. Night Shyamalan'
p223
aS'Steven Soderbergh'
p224
aS'Stephen Daldry'
p225
aS'Ang Lee'
p226
ag194
ag224
aS'Ron Howard'
p227
ag137
aS'Peter Jackson'
p228
ag167
ag194
ag150
aS'Pedro Almod\xc3\xb3var'
p229
ag225
aS'Rob Marshall'
p230
ag169
ag228
aS'Sofia Coppola'
p231
ag196
aS'Fernando Meirelles'
p232
ag181
ag196
aS'Taylor Hackford'
p233
ag211
aS'Alexander Payne'
p234
ag169
ag226
aS'George Clooney'
p235
aS'Paul Haggis'
p236
aS'Bennett Miller'
p237
ag158
ag169
ag196
ag191
aS'Paul Greengrass'
p238
aS'Alejandro G. I\xc3\xb1\xc3\xa1rritu'
p239
aS'Joel Coen\nEthan Coen'
p240
aS'Paul Thomas Anderson'
p241
aS'Tony Gilroy'
p242
aS'Jason Reitman'
p243
aS'Julian Schnabel'
p244
aS'Danny Boyle'
p245
ag225
aS'David Fincher'
p246
ag227
ag216
aS'Kathryn Bigelow'
p247
ag212
aS'Lee Daniels'
p248
ag243
ag202
aS'Tom Hooper'
p249
aS'Darren Aronofsky'
p250
ag240
ag246
aS'David O. Russell'
p251
aS'Michel Hazanavicius'
p252
ag156
ag219
ag234
ag169
ag226
aS'Michael Haneke'
p253
ag251
ag158
aS'Benh Zeitlin'
p254
aS'Alfonso Cuar\xc3\xb3n'
p255
aS'Steve McQueen'
p256
ag234
ag251
ag169
ag239
aS'Wes Anderson'
p257
aS'Richard Linklater'
p258
ag237
aS'Morten Tyldum'
p259
ag239
aS'Lenny Abrahamson'
p260
aS'Tom McCarthy'
p261
aS'Adam McKay'
p262
aS'George Miller'
p263
aS'Damien Chazelle'
p264
ag203
aS'Barry Jenkins'
p265
aS'Kenneth Lonergan'
p266
aS'Denis Villeneuve'
p267
atp268
ba(lp269
g14
(g15
(dp270
g17
I0
sg18
I1
sg19
I440
sg8
Nstp271
Rp272
a(dp273
S'0.14.1'
p274
(dp275
S'axes'
p276
g13
sS'blocks'
p277
(lp278
(dp279
S'mgr_locs'
p280
c__builtin__
slice
p281
(I0
I440
I1
tp282
Rp283
sS'values'
p284
g28
sasstp285
bsS'_typ'
p286
S'series'
p287
sg8
S'Director(s)'
p288
sb.